target datalayout = "e-m:e-p270:32:32-p271:32:32-p272:64:64-i64:64-i128:128-f80:128-n8:16:32:64-S128"
target triple = "x86_64-pc-linux-gnu"

%struct.H5O_t = type { %struct.H5C_cache_entry_t, i64, i64, i8, i64, i8, i32, i8, i8, i64, i64, i64, i64, i32, i32, i64, i64, ptr, i64, i64, i64, i64, ptr, i8, ptr }
%struct.H5C_cache_entry_t = type { ptr, i64, i64, ptr, i8, ptr, i8, i8, i8, i8, i32, i8, i8, i8, i8, i8, i32, ptr, i32, i32, i32, i32, i32, i8, i8, ptr, ptr, ptr, ptr, ptr, ptr, i8, i32, i8, i64, ptr, i64, i64, i32, i8, i32, i32, i8, ptr, ptr, ptr }
%struct.H5O_mesg_t = type { ptr, i8, i8, i32, i32, ptr, ptr, i64 }
%struct.H5O_loc_t = type { ptr, i64, i8 }

@.str.4 = private unnamed_addr constant [100 x i8] c"generated/home/dtcxzyw/WorkSpace/Projects/compilers/llvm-opt-benchmark/bench/hdf5/hdf5/src/H5Oint.c\00", align 1
@H5E_OHDR_g = external global i64, align 8
@H5E_CANTGET_g = external global i64, align 8
@H5E_CANTDELETE_g = external global i64, align 8
@.str.39 = private unnamed_addr constant [30 x i8] c"can't delete object from file\00", align 1
@H5E_CANTPROTECT_g = external global i64, align 8
@.str.41 = private unnamed_addr constant [29 x i8] c"unable to load object header\00", align 1
@.str.47 = private unnamed_addr constant [32 x i8] c"unable to release object header\00", align 1
@__func__.H5O_delete = private unnamed_addr constant [11 x i8] c"H5O_delete\00", align 1
@.str.56 = private unnamed_addr constant [43 x i8] c"unable to retrieve an object's cork status\00", align 1
@H5E_CANTUNCORK_g = external global i64, align 8
@.str.57 = private unnamed_addr constant [27 x i8] c"unable to uncork an object\00", align 1
@H5E_PROTECT_g = external global i64, align 8
@__func__.H5O__delete_oh = private unnamed_addr constant [15 x i8] c"H5O__delete_oh\00", align 1
@.str.92 = private unnamed_addr constant [54 x i8] c"unable to delete file space for object header message\00", align 1

; Function Attrs: nounwind uwtable
define internal i32 @H5O__delete_oh(ptr noundef %0, ptr noundef %1) #0 {
  %3 = alloca ptr, align 8
  %4 = alloca ptr, align 8
  %5 = alloca ptr, align 8
  %6 = alloca i32, align 4
  %7 = alloca i32, align 4
  %8 = alloca i8, align 1
  store ptr %0, ptr %3, align 8
  store ptr %1, ptr %4, align 8
  store i32 0, ptr %7, align 4
  store i8 0, ptr %8, align 1
  store i32 0, ptr %6, align 4
  %9 = load ptr, ptr %4, align 8
  %10 = getelementptr inbounds %struct.H5O_t, ptr %9, i32 0, i32 17
  %11 = load ptr, ptr %10, align 8
  %12 = getelementptr inbounds %struct.H5O_mesg_t, ptr %11, i64 0
  store ptr %12, ptr %5, align 8
  br label %13

13:                                               ; preds = %42, %2
  %14 = load i32, ptr %6, align 4
  %15 = zext i32 %14 to i64
  %16 = load ptr, ptr %4, align 8
  %17 = getelementptr inbounds %struct.H5O_t, ptr %16, i32 0, i32 15
  %18 = load i64, ptr %17, align 8
  %19 = icmp ult i64 %15, %18
  br i1 %19, label %20, label %47

20:                                               ; preds = %13
  %21 = load ptr, ptr %3, align 8
  %22 = load ptr, ptr %4, align 8
  %23 = load ptr, ptr %5, align 8
  %24 = call i32 @H5O__delete_mesg(ptr noundef %21, ptr noundef %22, ptr noundef %23)
  %25 = icmp slt i32 %24, 0
  br i1 %25, label %26, label %41

26:                                               ; preds = %20
  br label %27

27:                                               ; preds = %26
  br label %28

28:                                               ; preds = %27
  br label %29

29:                                               ; preds = %28
  %30 = load i64, ptr @H5E_OHDR_g, align 8
  %31 = load i64, ptr @H5E_CANTDELETE_g, align 8
  %32 = call i32 (ptr, ptr, i32, i64, i64, ptr, ...) @H5E_printf_stack(ptr noundef @.str.4, ptr noundef @__func__.H5O__delete_oh, i32 noundef 1553, i64 noundef %30, i64 noundef %31, ptr noundef @.str.92)
  br label %33

33:                                               ; preds = %29
  store i8 1, ptr %8, align 1
  %34 = load i8, ptr %8, align 1
  %35 = trunc i8 %34 to i1
  %36 = zext i1 %35 to i8
  store i8 %36, ptr %8, align 1
  br label %37

37:                                               ; preds = %33
  br label %38

38:                                               ; preds = %37
  store i32 -1, ptr %7, align 4
  br label %48

39:                                               ; No predecessors!
  br label %40

40:                                               ; preds = %39
  br label %41

41:                                               ; preds = %40, %20
  br label %42

42:                                               ; preds = %41
  %43 = load i32, ptr %6, align 4
  %44 = add i32 %43, 1
  store i32 %44, ptr %6, align 4
  %45 = load ptr, ptr %5, align 8
  %46 = getelementptr inbounds %struct.H5O_mesg_t, ptr %45, i32 1
  store ptr %46, ptr %5, align 8
  br label %13

47:                                               ; preds = %13
  br label %48

48:                                               ; preds = %47, %38
  %49 = load i32, ptr %7, align 4
  ret i32 %49
}

; Function Attrs: nounwind uwtable
define i32 @H5O_delete(ptr noundef %0, i64 noundef %1) #0 {
  %3 = alloca ptr, align 8
  %4 = alloca i64, align 8
  %5 = alloca ptr, align 8
  %6 = alloca %struct.H5O_loc_t, align 8
  %7 = alloca i32, align 4
  %8 = alloca i8, align 1
  %9 = alloca i32, align 4
  %10 = alloca i64, align 8
  %11 = alloca i8, align 1
  store ptr %0, ptr %3, align 8
  store i64 %1, ptr %4, align 8
  store ptr null, ptr %5, align 8
  store i32 0, ptr %7, align 4
  store i32 0, ptr %9, align 4
  store i64 -1, ptr %10, align 8
  store i8 0, ptr %11, align 1
  %12 = load i64, ptr %4, align 8
  call void @H5AC_tag(i64 noundef %12, ptr noundef %10)
  %13 = load ptr, ptr %3, align 8
  %14 = getelementptr inbounds %struct.H5O_loc_t, ptr %6, i32 0, i32 0
  store ptr %13, ptr %14, align 8
  %15 = load i64, ptr %4, align 8
  %16 = getelementptr inbounds %struct.H5O_loc_t, ptr %6, i32 0, i32 1
  store i64 %15, ptr %16, align 8
  %17 = getelementptr inbounds %struct.H5O_loc_t, ptr %6, i32 0, i32 2
  store i8 0, ptr %17, align 8
  %18 = call ptr @H5O_protect(ptr noundef %6, i32 noundef 0, i1 noundef zeroext false)
  store ptr %18, ptr %5, align 8
  %19 = icmp eq ptr null, %18
  br i1 %19, label %20, label %35

20:                                               ; preds = %2
  br label %21

21:                                               ; preds = %20
  br label %22

22:                                               ; preds = %21
  br label %23

23:                                               ; preds = %22
  %24 = load i64, ptr @H5E_OHDR_g, align 8
  %25 = load i64, ptr @H5E_CANTPROTECT_g, align 8
  %26 = call i32 (ptr, ptr, i32, i64, i64, ptr, ...) @H5E_printf_stack(ptr noundef @.str.4, ptr noundef @__func__.H5O_delete, i32 noundef 1497, i64 noundef %24, i64 noundef %25, ptr noundef @.str.41)
  br label %27

27:                                               ; preds = %23
  store i8 1, ptr %11, align 1
  %28 = load i8, ptr %11, align 1
  %29 = trunc i8 %28 to i1
  %30 = zext i1 %29 to i8
  store i8 %30, ptr %11, align 1
  br label %31

31:                                               ; preds = %27
  br label %32

32:                                               ; preds = %31
  store i32 -1, ptr %9, align 4
  br label %100

33:                                               ; No predecessors!
  br label %34

34:                                               ; preds = %33
  br label %35

35:                                               ; preds = %34, %2
  %36 = load ptr, ptr %3, align 8
  %37 = load ptr, ptr %5, align 8
  %38 = call i32 @H5O__delete_oh(ptr noundef %36, ptr noundef %37)
  %39 = icmp slt i32 %38, 0
  br i1 %39, label %40, label %55

40:                                               ; preds = %35
  br label %41

41:                                               ; preds = %40
  br label %42

42:                                               ; preds = %41
  br label %43

43:                                               ; preds = %42
  %44 = load i64, ptr @H5E_OHDR_g, align 8
  %45 = load i64, ptr @H5E_CANTDELETE_g, align 8
  %46 = call i32 (ptr, ptr, i32, i64, i64, ptr, ...) @H5E_printf_stack(ptr noundef @.str.4, ptr noundef @__func__.H5O_delete, i32 noundef 1501, i64 noundef %44, i64 noundef %45, ptr noundef @.str.39)
  br label %47

47:                                               ; preds = %43
  store i8 1, ptr %11, align 1
  %48 = load i8, ptr %11, align 1
  %49 = trunc i8 %48 to i1
  %50 = zext i1 %49 to i8
  store i8 %50, ptr %11, align 1
  br label %51

51:                                               ; preds = %47
  br label %52

52:                                               ; preds = %51
  store i32 -1, ptr %9, align 4
  br label %100

53:                                               ; No predecessors!
  br label %54

54:                                               ; preds = %53
  br label %55

55:                                               ; preds = %54, %35
  %56 = load ptr, ptr %3, align 8
  %57 = load i64, ptr %4, align 8
  %58 = call i32 @H5AC_cork(ptr noundef %56, i64 noundef %57, i32 noundef 4, ptr noundef %8)
  %59 = icmp slt i32 %58, 0
  br i1 %59, label %60, label %75

60:                                               ; preds = %55
  br label %61

61:                                               ; preds = %60
  br label %62

62:                                               ; preds = %61
  br label %63

63:                                               ; preds = %62
  %64 = load i64, ptr @H5E_OHDR_g, align 8
  %65 = load i64, ptr @H5E_CANTGET_g, align 8
  %66 = call i32 (ptr, ptr, i32, i64, i64, ptr, ...) @H5E_printf_stack(ptr noundef @.str.4, ptr noundef @__func__.H5O_delete, i32 noundef 1505, i64 noundef %64, i64 noundef %65, ptr noundef @.str.56)
  br label %67

67:                                               ; preds = %63
  store i8 1, ptr %11, align 1
  %68 = load i8, ptr %11, align 1
  %69 = trunc i8 %68 to i1
  %70 = zext i1 %69 to i8
  store i8 %70, ptr %11, align 1
  br label %71

71:                                               ; preds = %67
  br label %72

72:                                               ; preds = %71
  store i32 -1, ptr %9, align 4
  br label %100

73:                                               ; No predecessors!
  br label %74

74:                                               ; preds = %73
  br label %75

75:                                               ; preds = %74, %55
  %76 = load i8, ptr %8, align 1
  %77 = trunc i8 %76 to i1
  br i1 %77, label %78, label %99

78:                                               ; preds = %75
  %79 = load ptr, ptr %3, align 8
  %80 = load i64, ptr %4, align 8
  %81 = call i32 @H5AC_cork(ptr noundef %79, i64 noundef %80, i32 noundef 2, ptr noundef null)
  %82 = icmp slt i32 %81, 0
  br i1 %82, label %83, label %98

83:                                               ; preds = %78
  br label %84

84:                                               ; preds = %83
  br label %85

85:                                               ; preds = %84
  br label %86

86:                                               ; preds = %85
  %87 = load i64, ptr @H5E_OHDR_g, align 8
  %88 = load i64, ptr @H5E_CANTUNCORK_g, align 8
  %89 = call i32 (ptr, ptr, i32, i64, i64, ptr, ...) @H5E_printf_stack(ptr noundef @.str.4, ptr noundef @__func__.H5O_delete, i32 noundef 1508, i64 noundef %87, i64 noundef %88, ptr noundef @.str.57)
  br label %90

90:                                               ; preds = %86
  store i8 1, ptr %11, align 1
  %91 = load i8, ptr %11, align 1
  %92 = trunc i8 %91 to i1
  %93 = zext i1 %92 to i8
  store i8 %93, ptr %11, align 1
  br label %94

94:                                               ; preds = %90
  br label %95

95:                                               ; preds = %94
  store i32 -1, ptr %9, align 4
  br label %100

96:                                               ; No predecessors!
  br label %97

97:                                               ; preds = %96
  br label %98

98:                                               ; preds = %97, %78
  br label %99

99:                                               ; preds = %98, %75
  store i32 259, ptr %7, align 4
  br label %100

100:                                              ; preds = %99, %95, %72, %52, %32
  %101 = load ptr, ptr %5, align 8
  %102 = icmp ne ptr %101, null
  br i1 %102, label %103, label %121

103:                                              ; preds = %100
  %104 = load ptr, ptr %5, align 8
  %105 = load i32, ptr %7, align 4
  %106 = call i32 @H5O_unprotect(ptr noundef %6, ptr noundef %104, i32 noundef %105)
  %107 = icmp slt i32 %106, 0
  br i1 %107, label %108, label %121

108:                                              ; preds = %103
  br label %109

109:                                              ; preds = %108
  br label %110

110:                                              ; preds = %109
  br label %111

111:                                              ; preds = %110
  %112 = load i64, ptr @H5E_OHDR_g, align 8
  %113 = load i64, ptr @H5E_PROTECT_g, align 8
  %114 = call i32 (ptr, ptr, i32, i64, i64, ptr, ...) @H5E_printf_stack(ptr noundef @.str.4, ptr noundef @__func__.H5O_delete, i32 noundef 1515, i64 noundef %112, i64 noundef %113, ptr noundef @.str.47)
  br label %115

115:                                              ; preds = %111
  store i8 1, ptr %11, align 1
  %116 = load i8, ptr %11, align 1
  %117 = trunc i8 %116 to i1
  %118 = zext i1 %117 to i8
  store i8 %118, ptr %11, align 1
  br label %119

119:                                              ; preds = %115
  store i32 -1, ptr %9, align 4
  br label %120

120:                                              ; preds = %119
  br label %121

121:                                              ; preds = %120, %103, %100
  %122 = load i64, ptr %10, align 8
  call void @H5AC_tag(i64 noundef %122, ptr noundef null)
  %123 = load i32, ptr %9, align 4
  ret i32 %123
}