; Function Attrs: nounwind uwtable
define range(i32 -1, 1) i32 @H5O_delete(ptr noundef %0, i64 noundef %1) local_unnamed_addr #1 {
  %3 = alloca %struct.H5O_loc_t, align 8
  %4 = alloca i8, align 1
  %5 = alloca i64, align 8
  store i64 -1, ptr %5, align 8
  call void @H5AC_tag(i64 noundef %1, ptr noundef nonnull %5) #11
  store ptr %0, ptr %3, align 8
  %6 = getelementptr inbounds i8, ptr %3, i64 8
  store i64 %1, ptr %6, align 8
  %7 = getelementptr inbounds i8, ptr %3, i64 16
  store i8 0, ptr %7, align 8
  %8 = call ptr @H5O_protect(ptr noundef nonnull %3, i32 noundef 0, i1 noundef zeroext false)
  %9 = icmp eq ptr %8, null
  br i1 %9, label %.thread25, label %13

.thread25:                                        ; preds = %2
  %10 = load i64, ptr @H5E_OHDR_g, align 8
  %11 = load i64, ptr @H5E_CANTPROTECT_g, align 8
  %12 = call i32 (ptr, ptr, i32, i64, i64, ptr, ...) @H5E_printf_stack(ptr noundef nonnull @.str.4, ptr noundef nonnull @__func__.H5O_delete, i32 noundef 1497, i64 noundef %10, i64 noundef %11, ptr noundef nonnull @.str.41) #11
  br label %55

13:                                               ; preds = %2
  %14 = getelementptr inbounds i8, ptr %8, i64 336
  %15 = load i64, ptr %14, align 8
  %.not.i = icmp eq i64 %15, 0
  br i1 %.not.i, label %.loopexit, label %.lr.ph.preheader.i

.lr.ph.preheader.i:                               ; preds = %13
  %16 = getelementptr inbounds i8, ptr %8, i64 352
  %17 = load ptr, ptr %16, align 8
  br label %.lr.ph.i

.lr.ph.i:                                         ; preds = %20, %.lr.ph.preheader.i
  %.0912.i = phi i32 [ %21, %20 ], [ 0, %.lr.ph.preheader.i ]
  %.01011.i = phi ptr [ %22, %20 ], [ %17, %.lr.ph.preheader.i ]
  %18 = call i32 @H5O__delete_mesg(ptr noundef %0, ptr noundef nonnull %8, ptr noundef %.01011.i) #11
  %19 = icmp slt i32 %18, 0
  br i1 %19, label %42, label %20

20:                                               ; preds = %.lr.ph.i
  %21 = add i32 %.0912.i, 1
  %22 = getelementptr inbounds i8, ptr %.01011.i, i64 48
  %23 = zext i32 %21 to i64
  %24 = load i64, ptr %14, align 8
  %25 = icmp ugt i64 %24, %23
  br i1 %25, label %.lr.ph.i, label %.loopexit

.loopexit:                                        ; preds = %20, %13
  %26 = call i32 @H5AC_cork(ptr noundef %0, i64 noundef %1, i32 noundef 4, ptr noundef nonnull %4) #11
  %27 = icmp slt i32 %26, 0
  br i1 %27, label %28, label %32

28:                                               ; preds = %.loopexit
  %29 = load i64, ptr @H5E_OHDR_g, align 8
  %30 = load i64, ptr @H5E_CANTGET_g, align 8
  %31 = call i32 (ptr, ptr, i32, i64, i64, ptr, ...) @H5E_printf_stack(ptr noundef nonnull @.str.4, ptr noundef nonnull @__func__.H5O_delete, i32 noundef 1505, i64 noundef %29, i64 noundef %30, ptr noundef nonnull @.str.56) #11
  br label %.thread

32:                                               ; preds = %.loopexit
  %33 = load i8, ptr %4, align 1
  %34 = trunc i8 %33 to i1
  br i1 %34, label %35, label %.thread

35:                                               ; preds = %32
  %36 = call i32 @H5AC_cork(ptr noundef %0, i64 noundef %1, i32 noundef 2, ptr noundef null) #11
  %37 = icmp slt i32 %36, 0
  br i1 %37, label %38, label %.thread

38:                                               ; preds = %35
  %39 = load i64, ptr @H5E_OHDR_g, align 8
  %40 = load i64, ptr @H5E_CANTUNCORK_g, align 8
  %41 = call i32 (ptr, ptr, i32, i64, i64, ptr, ...) @H5E_printf_stack(ptr noundef nonnull @.str.4, ptr noundef nonnull @__func__.H5O_delete, i32 noundef 1508, i64 noundef %39, i64 noundef %40, ptr noundef nonnull @.str.57) #11
  br label %.thread

42:                                               ; preds = %.lr.ph.i
  %43 = load i64, ptr @H5E_OHDR_g, align 8
  %44 = load i64, ptr @H5E_CANTDELETE_g, align 8
  %45 = call i32 (ptr, ptr, i32, i64, i64, ptr, ...) @H5E_printf_stack(ptr noundef nonnull @.str.4, ptr noundef nonnull @__func__.H5O__delete_oh, i32 noundef 1553, i64 noundef %43, i64 noundef %44, ptr noundef nonnull @.str.92) #11
  %46 = load i64, ptr @H5E_OHDR_g, align 8
  %47 = load i64, ptr @H5E_CANTDELETE_g, align 8
  %48 = call i32 (ptr, ptr, i32, i64, i64, ptr, ...) @H5E_printf_stack(ptr noundef nonnull @.str.4, ptr noundef nonnull @__func__.H5O_delete, i32 noundef 1501, i64 noundef %46, i64 noundef %47, ptr noundef nonnull @.str.39) #11
  br label %.thread

.thread:                                          ; preds = %42, %28, %38, %35, %32
  %.024 = phi i32 [ -1, %42 ], [ 0, %32 ], [ 0, %35 ], [ -1, %38 ], [ -1, %28 ]
  %.01723 = phi i32 [ 0, %42 ], [ 259, %32 ], [ 259, %35 ], [ 0, %38 ], [ 0, %28 ]
  %49 = call i32 @H5O_unprotect(ptr noundef nonnull %3, ptr noundef nonnull %8, i32 noundef %.01723)
  %50 = icmp slt i32 %49, 0
  br i1 %50, label %51, label %55

51:                                               ; preds = %.thread
  %52 = load i64, ptr @H5E_OHDR_g, align 8
  %53 = load i64, ptr @H5E_PROTECT_g, align 8
  %54 = call i32 (ptr, ptr, i32, i64, i64, ptr, ...) @H5E_printf_stack(ptr noundef nonnull @.str.4, ptr noundef nonnull @__func__.H5O_delete, i32 noundef 1515, i64 noundef %52, i64 noundef %53, ptr noundef nonnull @.str.47) #11
  br label %55

55:                                               ; preds = %.thread25, %51, %.thread
  %.1 = phi i32 [ -1, %51 ], [ %.024, %.thread ], [ -1, %.thread25 ]
  %56 = load i64, ptr %5, align 8
  call void @H5AC_tag(i64 noundef %56, ptr noundef null) #11
  ret i32 %.1
}